target datalayout = "e-m:e-p270:32:32-p271:32:32-p272:64:64-i64:64-i128:128-f80:128-n8:16:32:64-S128"
target triple = "x86_64-pc-linux-gnu"

%struct.AVCodecContext = type { ptr, i32, i32, ptr, i32, i32, ptr, ptr, ptr, i64, i32, i32, ptr, i32, %struct.AVRational, %struct.AVRational, %struct.AVRational, i32, i32, i32, i32, i32, %struct.AVRational, i32, i32, i32, i32, i32, i32, i32, i32, i32, i32, i32, ptr, ptr, i32, float, float, float, float, float, float, float, float, float, i32, i32, i32, i32, i32, i32, i32, i32, i32, i32, i32, i32, ptr, ptr, ptr, i32, i32, i32, i32, i32, i32, i32, i32, i32, i32, %struct.AVChannelLayout, i32, i32, i32, i32, i32, i32, i32, i32, ptr, i32, i32, i32, float, float, i32, i32, i32, i32, i32, ptr, i64, i64, float, float, i32, i32, ptr, ptr, i32, i32, i32, i32, i32, ptr, ptr, ptr, ptr, i32, i32, [8 x i64], i32, i32, i32, i32, i32, i32, i32, ptr, ptr, i32, i32, i32, i32, i32, i32, i32, i32, i32, i32, ptr, ptr, i32, i32, ptr, ptr, ptr, ptr, i32, i32, i64, i32, i32, i64, ptr, i64, ptr, i32, ptr, i32 }
%struct.AVRational = type { i32, i32 }
%struct.AVChannelLayout = type { i32, i32, %union.anon, ptr }
%union.anon = type { i64 }
%struct.VP8Context = type { ptr, ptr, i32, i32, [4 x ptr], [4 x ptr], ptr, ptr, i16, i16, i64, i64, i8, i8, i8, i8, %struct.VP8mvbounds, [4 x i8], [3 x i32], %struct.anon, %struct.anon.0, ptr, ptr, [4 x i8], [4 x %struct.anon.1], %struct.anon.2, %struct.anon.3, ptr, ptr, %struct.VPXRangeCoder, %struct.anon.4, i32, [2 x %struct.anon.5], ptr, i32, i32, i32, i32, i32, i32, [8 x %struct.VPXRangeCoder], [8 x i32], %struct.VideoDSPContext, %struct.VP8DSPContext, %struct.H264PredContext, [3 x [3 x [3 x ptr]]], [5 x %struct.VP8Frame], i8, i8, i32, i32, ptr, ptr, [2 x [2 x i16]], [4 x i8], [4 x i8], [4 x [3 x i8]], [4 x [4 x i8]] }
%struct.VP8mvbounds = type { %struct.VP8intmv, %struct.VP8intmv }
%struct.VP8intmv = type { i32, i32 }
%struct.anon = type { i8, i8, i8, i8, [4 x i8], [4 x i8] }
%struct.anon.0 = type { i8, i8, i8 }
%struct.anon.1 = type { [2 x i16], [2 x i16], [2 x i16] }
%struct.anon.2 = type { i32, i32, i32, i32, i32, i32 }
%struct.anon.3 = type { i8, i8, [8 x i8], [4 x i8] }
%struct.VPXRangeCoder = type { i32, i32, ptr, ptr, i32, i32 }
%struct.anon.4 = type { ptr, i32, i32, i32 }
%struct.anon.5 = type { [3 x i8], i8, i8, i8, i8, [4 x i8], [3 x i8], [4 x [16 x [3 x [11 x i8]]]], [2 x [19 x i8]], [16 x i8] }
%struct.VideoDSPContext = type { ptr, ptr }
%struct.VP8DSPContext = type { ptr, ptr, ptr, ptr, ptr, ptr, ptr, ptr, ptr, ptr, ptr, ptr, ptr, ptr, ptr, ptr, [3 x [3 x [3 x ptr]]], [3 x [3 x [3 x ptr]]] }
%struct.H264PredContext = type { [15 x ptr], [12 x ptr], [11 x ptr], [9 x ptr], [2 x ptr], [2 x ptr], [2 x ptr], [3 x ptr], [3 x ptr] }
%struct.VP8Frame = type { %struct.ProgressFrame, ptr, ptr }
%struct.ProgressFrame = type { ptr, ptr }

; Function Attrs: nounwind uwtable
define internal void @vp8_replace_frame(ptr noundef %0, ptr noundef %1) #1 {
  %3 = alloca ptr, align 8
  %4 = alloca ptr, align 8
  store ptr %0, ptr %3, align 8, !tbaa !43
  store ptr %1, ptr %4, align 8, !tbaa !43
  %5 = load ptr, ptr %3, align 8, !tbaa !43
  %6 = getelementptr inbounds nuw %struct.VP8Frame, ptr %5, i32 0, i32 0
  %7 = load ptr, ptr %4, align 8, !tbaa !43
  %8 = getelementptr inbounds nuw %struct.VP8Frame, ptr %7, i32 0, i32 0
  call void @ff_progress_frame_replace(ptr noundef %6, ptr noundef %8)
  %9 = load ptr, ptr %3, align 8, !tbaa !43
  %10 = getelementptr inbounds nuw %struct.VP8Frame, ptr %9, i32 0, i32 1
  %11 = load ptr, ptr %4, align 8, !tbaa !43
  %12 = getelementptr inbounds nuw %struct.VP8Frame, ptr %11, i32 0, i32 1
  %13 = load ptr, ptr %12, align 8, !tbaa !162
  call void @av_refstruct_replace(ptr noundef %10, ptr noundef %13)
  %14 = load ptr, ptr %3, align 8, !tbaa !43
  %15 = getelementptr inbounds nuw %struct.VP8Frame, ptr %14, i32 0, i32 2
  %16 = load ptr, ptr %4, align 8, !tbaa !43
  %17 = getelementptr inbounds nuw %struct.VP8Frame, ptr %16, i32 0, i32 2
  %18 = load ptr, ptr %17, align 8, !tbaa !308
  call void @av_refstruct_replace(ptr noundef %15, ptr noundef %18)
  ret void
}

; Function Attrs: nounwind uwtable
define internal i32 @vp8_decode_update_thread_context(ptr noundef %0, ptr noundef %1) #1 {
  %3 = alloca ptr, align 8
  %4 = alloca ptr, align 8
  %5 = alloca ptr, align 8
  %6 = alloca ptr, align 8
  %7 = alloca i32, align 4
  store ptr %0, ptr %3, align 8, !tbaa !4
  store ptr %1, ptr %4, align 8, !tbaa !4
  call void @llvm.lifetime.start.p0(i64 8, ptr %5) #12
  %8 = load ptr, ptr %3, align 8, !tbaa !4
  %9 = getelementptr inbounds nuw %struct.AVCodecContext, ptr %8, i32 0, i32 6
  %10 = load ptr, ptr %9, align 8, !tbaa !11
  store ptr %10, ptr %5, align 8, !tbaa !30
  call void @llvm.lifetime.start.p0(i64 8, ptr %6) #12
  %11 = load ptr, ptr %4, align 8, !tbaa !4
  %12 = getelementptr inbounds nuw %struct.AVCodecContext, ptr %11, i32 0, i32 6
  %13 = load ptr, ptr %12, align 8, !tbaa !11
  store ptr %13, ptr %6, align 8, !tbaa !30
  %14 = load ptr, ptr %5, align 8, !tbaa !30
  %15 = getelementptr inbounds nuw %struct.VP8Context, ptr %14, i32 0, i32 33
  %16 = load ptr, ptr %15, align 8, !tbaa !125
  %17 = icmp ne ptr %16, null
  br i1 %17, label %18, label %50

18:                                               ; preds = %2
  %19 = load ptr, ptr %6, align 8, !tbaa !30
  %20 = getelementptr inbounds nuw %struct.VP8Context, ptr %19, i32 0, i32 8
  %21 = load i16, ptr %20, align 8, !tbaa !99
  %22 = zext i16 %21 to i32
  %23 = load ptr, ptr %5, align 8, !tbaa !30
  %24 = getelementptr inbounds nuw %struct.VP8Context, ptr %23, i32 0, i32 8
  %25 = load i16, ptr %24, align 8, !tbaa !99
  %26 = zext i16 %25 to i32
  %27 = icmp ne i32 %22, %26
  br i1 %27, label %38, label %28

28:                                               ; preds = %18
  %29 = load ptr, ptr %6, align 8, !tbaa !30
  %30 = getelementptr inbounds nuw %struct.VP8Context, ptr %29, i32 0, i32 9
  %31 = load i16, ptr %30, align 2, !tbaa !102
  %32 = zext i16 %31 to i32
  %33 = load ptr, ptr %5, align 8, !tbaa !30
  %34 = getelementptr inbounds nuw %struct.VP8Context, ptr %33, i32 0, i32 9
  %35 = load i16, ptr %34, align 2, !tbaa !102
  %36 = zext i16 %35 to i32
  %37 = icmp ne i32 %32, %36
  br i1 %37, label %38, label %50

38:                                               ; preds = %28, %18
  %39 = load ptr, ptr %5, align 8, !tbaa !30
  call void @free_buffers(ptr noundef %39)
  %40 = load ptr, ptr %6, align 8, !tbaa !30
  %41 = getelementptr inbounds nuw %struct.VP8Context, ptr %40, i32 0, i32 8
  %42 = load i16, ptr %41, align 8, !tbaa !99
  %43 = load ptr, ptr %5, align 8, !tbaa !30
  %44 = getelementptr inbounds nuw %struct.VP8Context, ptr %43, i32 0, i32 8
  store i16 %42, ptr %44, align 8, !tbaa !99
  %45 = load ptr, ptr %6, align 8, !tbaa !30
  %46 = getelementptr inbounds nuw %struct.VP8Context, ptr %45, i32 0, i32 9
  %47 = load i16, ptr %46, align 2, !tbaa !102
  %48 = load ptr, ptr %5, align 8, !tbaa !30
  %49 = getelementptr inbounds nuw %struct.VP8Context, ptr %48, i32 0, i32 9
  store i16 %47, ptr %49, align 2, !tbaa !102
  br label %50

50:                                               ; preds = %38, %28, %2
  %51 = load ptr, ptr %6, align 8, !tbaa !30
  %52 = getelementptr inbounds nuw %struct.VP8Context, ptr %51, i32 0, i32 2
  %53 = load i32, ptr %52, align 8, !tbaa !65
  %54 = load ptr, ptr %5, align 8, !tbaa !30
  %55 = getelementptr inbounds nuw %struct.VP8Context, ptr %54, i32 0, i32 2
  store i32 %53, ptr %55, align 8, !tbaa !65
  %56 = load ptr, ptr %5, align 8, !tbaa !30
  %57 = getelementptr inbounds nuw %struct.VP8Context, ptr %56, i32 0, i32 32
  %58 = getelementptr inbounds [2 x %struct.anon.5], ptr %57, i64 0, i64 0
  %59 = load ptr, ptr %6, align 8, !tbaa !30
  %60 = getelementptr inbounds nuw %struct.VP8Context, ptr %59, i32 0, i32 32
  %61 = load ptr, ptr %6, align 8, !tbaa !30
  %62 = getelementptr inbounds nuw %struct.VP8Context, ptr %61, i32 0, i32 38
  %63 = load i32, ptr %62, align 8, !tbaa !119
  %64 = icmp ne i32 %63, 0
  %65 = xor i1 %64, true
  %66 = zext i1 %65 to i32
  %67 = sext i32 %66 to i64
  %68 = getelementptr inbounds [2 x %struct.anon.5], ptr %60, i64 0, i64 %67
  call void @llvm.memcpy.p0.p0.i64(ptr align 4 %58, ptr align 4 %68, i64 2180, i1 false), !tbaa.struct !120
  %69 = load ptr, ptr %5, align 8, !tbaa !30
  %70 = getelementptr inbounds nuw %struct.VP8Context, ptr %69, i32 0, i32 19
  %71 = load ptr, ptr %6, align 8, !tbaa !30
  %72 = getelementptr inbounds nuw %struct.VP8Context, ptr %71, i32 0, i32 19
  call void @llvm.memcpy.p0.p0.i64(ptr align 4 %70, ptr align 4 %72, i64 12, i1 false), !tbaa.struct !126
  %73 = load ptr, ptr %5, align 8, !tbaa !30
  %74 = getelementptr inbounds nuw %struct.VP8Context, ptr %73, i32 0, i32 26
  %75 = load ptr, ptr %6, align 8, !tbaa !30
  %76 = getelementptr inbounds nuw %struct.VP8Context, ptr %75, i32 0, i32 26
  call void @llvm.memcpy.p0.p0.i64(ptr align 4 %74, ptr align 4 %76, i64 14, i1 false), !tbaa.struct !127
  %77 = load ptr, ptr %5, align 8, !tbaa !30
  %78 = getelementptr inbounds nuw %struct.VP8Context, ptr %77, i32 0, i32 17
  %79 = getelementptr inbounds [4 x i8], ptr %78, i64 0, i64 0
  %80 = load ptr, ptr %6, align 8, !tbaa !30
  %81 = getelementptr inbounds nuw %struct.VP8Context, ptr %80, i32 0, i32 17
  %82 = getelementptr inbounds [4 x i8], ptr %81, i64 0, i64 0
  call void @llvm.memcpy.p0.p0.i64(ptr align 4 %79, ptr align 4 %82, i64 4, i1 false)
  call void @llvm.lifetime.start.p0(i64 4, ptr %7) #12
  store i32 0, ptr %7, align 4, !tbaa !9
  br label %83

83:                                               ; preds = %99, %50
  %84 = load i32, ptr %7, align 4, !tbaa !9
  %85 = sext i32 %84 to i64
  %86 = icmp ult i64 %85, 5
  br i1 %86, label %88, label %87

87:                                               ; preds = %83
  call void @llvm.lifetime.end.p0(i64 4, ptr %7) #12
  br label %102

88:                                               ; preds = %83
  %89 = load ptr, ptr %5, align 8, !tbaa !30
  %90 = getelementptr inbounds nuw %struct.VP8Context, ptr %89, i32 0, i32 46
  %91 = load i32, ptr %7, align 4, !tbaa !9
  %92 = sext i32 %91 to i64
  %93 = getelementptr inbounds [5 x %struct.VP8Frame], ptr %90, i64 0, i64 %92
  %94 = load ptr, ptr %6, align 8, !tbaa !30
  %95 = getelementptr inbounds nuw %struct.VP8Context, ptr %94, i32 0, i32 46
  %96 = load i32, ptr %7, align 4, !tbaa !9
  %97 = sext i32 %96 to i64
  %98 = getelementptr inbounds [5 x %struct.VP8Frame], ptr %95, i64 0, i64 %97
  call void @vp8_replace_frame(ptr noundef %93, ptr noundef %98)
  br label %99

99:                                               ; preds = %88
  %100 = load i32, ptr %7, align 4, !tbaa !9
  %101 = add nsw i32 %100, 1
  store i32 %101, ptr %7, align 4, !tbaa !9
  br label %83, !llvm.loop !128

102:                                              ; preds = %87
  %103 = load ptr, ptr %6, align 8, !tbaa !30
  %104 = getelementptr inbounds nuw %struct.VP8Context, ptr %103, i32 0, i32 5
  %105 = getelementptr inbounds [4 x ptr], ptr %104, i64 0, i64 0
  %106 = load ptr, ptr %105, align 8, !tbaa !43
  %107 = icmp ne ptr %106, null
  br i1 %107, label %108, label %124

108:                                              ; preds = %102
  %109 = load ptr, ptr %6, align 8, !tbaa !30
  %110 = getelementptr inbounds nuw %struct.VP8Context, ptr %109, i32 0, i32 5
  %111 = getelementptr inbounds [4 x ptr], ptr %110, i64 0, i64 0
  %112 = load ptr, ptr %111, align 8, !tbaa !43
  %113 = load ptr, ptr %6, align 8, !tbaa !30
  %114 = getelementptr inbounds nuw %struct.VP8Context, ptr %113, i32 0, i32 46
  %115 = getelementptr inbounds [5 x %struct.VP8Frame], ptr %114, i64 0, i64 0
  %116 = ptrtoint ptr %112 to i64
  %117 = ptrtoint ptr %115 to i64
  %118 = sub i64 %116, %117
  %119 = sdiv exact i64 %118, 32
  %120 = load ptr, ptr %5, align 8, !tbaa !30
  %121 = getelementptr inbounds nuw %struct.VP8Context, ptr %120, i32 0, i32 46
  %122 = getelementptr inbounds [5 x %struct.VP8Frame], ptr %121, i64 0, i64 0
  %123 = getelementptr inbounds %struct.VP8Frame, ptr %122, i64 %119
  br label %125

124:                                              ; preds = %102
  br label %125

125:                                              ; preds = %124, %108
  %126 = phi ptr [ %123, %108 ], [ null, %124 ]
  %127 = load ptr, ptr %5, align 8, !tbaa !30
  %128 = getelementptr inbounds nuw %struct.VP8Context, ptr %127, i32 0, i32 4
  %129 = getelementptr inbounds [4 x ptr], ptr %128, i64 0, i64 0
  store ptr %126, ptr %129, align 8, !tbaa !43
  %130 = load ptr, ptr %6, align 8, !tbaa !30
  %131 = getelementptr inbounds nuw %struct.VP8Context, ptr %130, i32 0, i32 5
  %132 = getelementptr inbounds [4 x ptr], ptr %131, i64 0, i64 1
  %133 = load ptr, ptr %132, align 8, !tbaa !43
  %134 = icmp ne ptr %133, null
  br i1 %134, label %135, label %151

135:                                              ; preds = %125
  %136 = load ptr, ptr %6, align 8, !tbaa !30
  %137 = getelementptr inbounds nuw %struct.VP8Context, ptr %136, i32 0, i32 5
  %138 = getelementptr inbounds [4 x ptr], ptr %137, i64 0, i64 1
  %139 = load ptr, ptr %138, align 8, !tbaa !43
  %140 = load ptr, ptr %6, align 8, !tbaa !30
  %141 = getelementptr inbounds nuw %struct.VP8Context, ptr %140, i32 0, i32 46
  %142 = getelementptr inbounds [5 x %struct.VP8Frame], ptr %141, i64 0, i64 0
  %143 = ptrtoint ptr %139 to i64
  %144 = ptrtoint ptr %142 to i64
  %145 = sub i64 %143, %144
  %146 = sdiv exact i64 %145, 32
  %147 = load ptr, ptr %5, align 8, !tbaa !30
  %148 = getelementptr inbounds nuw %struct.VP8Context, ptr %147, i32 0, i32 46
  %149 = getelementptr inbounds [5 x %struct.VP8Frame], ptr %148, i64 0, i64 0
  %150 = getelementptr inbounds %struct.VP8Frame, ptr %149, i64 %146
  br label %152

151:                                              ; preds = %125
  br label %152

152:                                              ; preds = %151, %135
  %153 = phi ptr [ %150, %135 ], [ null, %151 ]
  %154 = load ptr, ptr %5, align 8, !tbaa !30
  %155 = getelementptr inbounds nuw %struct.VP8Context, ptr %154, i32 0, i32 4
  %156 = getelementptr inbounds [4 x ptr], ptr %155, i64 0, i64 1
  store ptr %153, ptr %156, align 8, !tbaa !43
  %157 = load ptr, ptr %6, align 8, !tbaa !30
  %158 = getelementptr inbounds nuw %struct.VP8Context, ptr %157, i32 0, i32 5
  %159 = getelementptr inbounds [4 x ptr], ptr %158, i64 0, i64 2
  %160 = load ptr, ptr %159, align 8, !tbaa !43
  %161 = icmp ne ptr %160, null
  br i1 %161, label %162, label %178

162:                                              ; preds = %152
  %163 = load ptr, ptr %6, align 8, !tbaa !30
  %164 = getelementptr inbounds nuw %struct.VP8Context, ptr %163, i32 0, i32 5
  %165 = getelementptr inbounds [4 x ptr], ptr %164, i64 0, i64 2
  %166 = load ptr, ptr %165, align 8, !tbaa !43
  %167 = load ptr, ptr %6, align 8, !tbaa !30
  %168 = getelementptr inbounds nuw %struct.VP8Context, ptr %167, i32 0, i32 46
  %169 = getelementptr inbounds [5 x %struct.VP8Frame], ptr %168, i64 0, i64 0
  %170 = ptrtoint ptr %166 to i64
  %171 = ptrtoint ptr %169 to i64
  %172 = sub i64 %170, %171
  %173 = sdiv exact i64 %172, 32
  %174 = load ptr, ptr %5, align 8, !tbaa !30
  %175 = getelementptr inbounds nuw %struct.VP8Context, ptr %174, i32 0, i32 46
  %176 = getelementptr inbounds [5 x %struct.VP8Frame], ptr %175, i64 0, i64 0
  %177 = getelementptr inbounds %struct.VP8Frame, ptr %176, i64 %173
  br label %179

178:                                              ; preds = %152
  br label %179

179:                                              ; preds = %178, %162
  %180 = phi ptr [ %177, %162 ], [ null, %178 ]
  %181 = load ptr, ptr %5, align 8, !tbaa !30
  %182 = getelementptr inbounds nuw %struct.VP8Context, ptr %181, i32 0, i32 4
  %183 = getelementptr inbounds [4 x ptr], ptr %182, i64 0, i64 2
  store ptr %180, ptr %183, align 8, !tbaa !43
  %184 = load ptr, ptr %6, align 8, !tbaa !30
  %185 = getelementptr inbounds nuw %struct.VP8Context, ptr %184, i32 0, i32 5
  %186 = getelementptr inbounds [4 x ptr], ptr %185, i64 0, i64 3
  %187 = load ptr, ptr %186, align 8, !tbaa !43
  %188 = icmp ne ptr %187, null
  br i1 %188, label %189, label %205

189:                                              ; preds = %179
  %190 = load ptr, ptr %6, align 8, !tbaa !30
  %191 = getelementptr inbounds nuw %struct.VP8Context, ptr %190, i32 0, i32 5
  %192 = getelementptr inbounds [4 x ptr], ptr %191, i64 0, i64 3
  %193 = load ptr, ptr %192, align 8, !tbaa !43
  %194 = load ptr, ptr %6, align 8, !tbaa !30
  %195 = getelementptr inbounds nuw %struct.VP8Context, ptr %194, i32 0, i32 46
  %196 = getelementptr inbounds [5 x %struct.VP8Frame], ptr %195, i64 0, i64 0
  %197 = ptrtoint ptr %193 to i64
  %198 = ptrtoint ptr %196 to i64
  %199 = sub i64 %197, %198
  %200 = sdiv exact i64 %199, 32
  %201 = load ptr, ptr %5, align 8, !tbaa !30
  %202 = getelementptr inbounds nuw %struct.VP8Context, ptr %201, i32 0, i32 46
  %203 = getelementptr inbounds [5 x %struct.VP8Frame], ptr %202, i64 0, i64 0
  %204 = getelementptr inbounds %struct.VP8Frame, ptr %203, i64 %200
  br label %206

205:                                              ; preds = %179
  br label %206

206:                                              ; preds = %205, %189
  %207 = phi ptr [ %204, %189 ], [ null, %205 ]
  %208 = load ptr, ptr %5, align 8, !tbaa !30
  %209 = getelementptr inbounds nuw %struct.VP8Context, ptr %208, i32 0, i32 4
  %210 = getelementptr inbounds [4 x ptr], ptr %209, i64 0, i64 3
  store ptr %207, ptr %210, align 8, !tbaa !43
  call void @llvm.lifetime.end.p0(i64 8, ptr %6) #12
  call void @llvm.lifetime.end.p0(i64 8, ptr %5) #12
  ret i32 0
}