; Function Attrs: nounwind uwtable
define internal noundef i32 @vp8_decode_update_thread_context(ptr noundef readonly captures(none) %0, ptr noundef readonly captures(none) %1) #1 {
  %3 = getelementptr inbounds nuw i8, ptr %0, i64 32
  %4 = load ptr, ptr %3, align 8, !tbaa !4
  %5 = getelementptr inbounds nuw i8, ptr %1, i64 32
  %6 = load ptr, ptr %5, align 8, !tbaa !4
  %7 = getelementptr inbounds nuw i8, ptr %4, i64 4736
  %8 = load ptr, ptr %7, align 8, !tbaa !91
  %.not = icmp eq ptr %8, null
  br i1 %.not, label %24, label %9

9:                                                ; preds = %2
  %10 = getelementptr inbounds nuw i8, ptr %6, i64 104
  %11 = load i16, ptr %10, align 8, !tbaa !92
  %12 = getelementptr inbounds nuw i8, ptr %4, i64 104
  %13 = load i16, ptr %12, align 8, !tbaa !92
  %.not53 = icmp eq i16 %11, %13
  br i1 %.not53, label %14, label %19

14:                                               ; preds = %9
  %15 = getelementptr inbounds nuw i8, ptr %6, i64 106
  %16 = load i16, ptr %15, align 2, !tbaa !93
  %17 = getelementptr inbounds nuw i8, ptr %4, i64 106
  %18 = load i16, ptr %17, align 2, !tbaa !93
  %.not54 = icmp eq i16 %16, %18
  br i1 %.not54, label %24, label %19

19:                                               ; preds = %14, %9
  tail call fastcc void @free_buffers(ptr noundef nonnull %4)
  %20 = load i16, ptr %10, align 8, !tbaa !92
  store i16 %20, ptr %12, align 8, !tbaa !92
  %21 = getelementptr inbounds nuw i8, ptr %6, i64 106
  %22 = load i16, ptr %21, align 2, !tbaa !93
  %23 = getelementptr inbounds nuw i8, ptr %4, i64 106
  store i16 %22, ptr %23, align 2, !tbaa !93
  br label %24

24:                                               ; preds = %19, %14, %2
  %25 = getelementptr inbounds nuw i8, ptr %6, i64 16
  %26 = load i32, ptr %25, align 8, !tbaa !94
  %27 = getelementptr inbounds nuw i8, ptr %4, i64 16
  store i32 %26, ptr %27, align 8, !tbaa !94
  %28 = getelementptr inbounds nuw i8, ptr %4, i64 372
  %29 = getelementptr inbounds nuw i8, ptr %6, i64 372
  %30 = getelementptr inbounds nuw i8, ptr %6, i64 4760
  %31 = load i32, ptr %30, align 8, !tbaa !120
  %.not55 = icmp eq i32 %31, 0
  %32 = zext i1 %.not55 to i64
  %33 = getelementptr inbounds nuw [2 x %struct.anon.5], ptr %29, i64 0, i64 %32
  tail call void @llvm.memcpy.p0.p0.i64(ptr noundef nonnull align 4 dereferenceable(2180) %28, ptr noundef nonnull align 4 dereferenceable(2180) %33, i64 2180, i1 false), !tbaa.struct !121
  %34 = getelementptr inbounds nuw i8, ptr %4, i64 164
  %35 = getelementptr inbounds nuw i8, ptr %6, i64 164
  tail call void @llvm.memcpy.p0.p0.i64(ptr noundef nonnull align 4 dereferenceable(12) %34, ptr noundef nonnull align 4 dereferenceable(12) %35, i64 12, i1 false), !tbaa.struct !250
  %36 = getelementptr inbounds nuw i8, ptr %4, i64 276
  %37 = getelementptr inbounds nuw i8, ptr %6, i64 276
  tail call void @llvm.memcpy.p0.p0.i64(ptr noundef nonnull align 4 dereferenceable(14) %36, ptr noundef nonnull align 4 dereferenceable(14) %37, i64 14, i1 false), !tbaa.struct !251
  %38 = getelementptr inbounds nuw i8, ptr %4, i64 148
  %39 = getelementptr inbounds nuw i8, ptr %6, i64 148
  %40 = load i32, ptr %39, align 4
  store i32 %40, ptr %38, align 4
  %41 = getelementptr inbounds nuw i8, ptr %4, i64 6320
  %42 = getelementptr inbounds nuw i8, ptr %6, i64 6320
  br label %73

43:                                               ; preds = %73
  %44 = getelementptr inbounds nuw i8, ptr %6, i64 56
  %45 = load ptr, ptr %44, align 8, !tbaa !135
  %.not56 = icmp eq ptr %45, null
  %46 = ptrtoint ptr %45 to i64
  %47 = ptrtoint ptr %42 to i64
  %48 = sub i64 %46, %47
  %49 = getelementptr inbounds i8, ptr %41, i64 %48
  %50 = select i1 %.not56, ptr null, ptr %49
  %51 = getelementptr inbounds nuw i8, ptr %4, i64 24
  store ptr %50, ptr %51, align 8, !tbaa !135
  %52 = getelementptr inbounds nuw i8, ptr %6, i64 64
  %53 = load ptr, ptr %52, align 8, !tbaa !135
  %.not57 = icmp eq ptr %53, null
  %54 = ptrtoint ptr %53 to i64
  %55 = sub i64 %54, %47
  %56 = getelementptr inbounds i8, ptr %41, i64 %55
  %57 = select i1 %.not57, ptr null, ptr %56
  %58 = getelementptr inbounds nuw i8, ptr %4, i64 32
  store ptr %57, ptr %58, align 8, !tbaa !135
  %59 = getelementptr inbounds nuw i8, ptr %6, i64 72
  %60 = load ptr, ptr %59, align 8, !tbaa !135
  %.not58 = icmp eq ptr %60, null
  %61 = ptrtoint ptr %60 to i64
  %62 = sub i64 %61, %47
  %63 = getelementptr inbounds i8, ptr %41, i64 %62
  %64 = select i1 %.not58, ptr null, ptr %63
  %65 = getelementptr inbounds nuw i8, ptr %4, i64 40
  store ptr %64, ptr %65, align 8, !tbaa !135
  %66 = getelementptr inbounds nuw i8, ptr %6, i64 80
  %67 = load ptr, ptr %66, align 8, !tbaa !135
  %.not59 = icmp eq ptr %67, null
  %68 = ptrtoint ptr %67 to i64
  %69 = sub i64 %68, %47
  %70 = getelementptr inbounds i8, ptr %41, i64 %69
  %71 = select i1 %.not59, ptr null, ptr %70
  %72 = getelementptr inbounds nuw i8, ptr %4, i64 48
  store ptr %71, ptr %72, align 8, !tbaa !135
  ret i32 0

73:                                               ; preds = %24, %73
  %indvars.iv = phi i64 [ 0, %24 ], [ %indvars.iv.next, %73 ]
  %74 = getelementptr inbounds nuw [5 x %struct.VP8Frame], ptr %41, i64 0, i64 %indvars.iv
  %75 = getelementptr inbounds nuw [5 x %struct.VP8Frame], ptr %42, i64 0, i64 %indvars.iv
  tail call void @ff_progress_frame_replace(ptr noundef nonnull %74, ptr noundef nonnull %75) #12
  %76 = getelementptr inbounds nuw i8, ptr %74, i64 16
  %77 = getelementptr inbounds nuw i8, ptr %75, i64 16
  %78 = load ptr, ptr %77, align 8, !tbaa !148
  tail call void @av_refstruct_replace(ptr noundef nonnull %76, ptr noundef %78) #12
  %79 = getelementptr inbounds nuw i8, ptr %74, i64 24
  %80 = getelementptr inbounds nuw i8, ptr %75, i64 24
  %81 = load ptr, ptr %80, align 8, !tbaa !252
  tail call void @av_refstruct_replace(ptr noundef nonnull %79, ptr noundef %81) #12
  %indvars.iv.next = add nuw nsw i64 %indvars.iv, 1
  %exitcond.not = icmp eq i64 %indvars.iv.next, 5
  br i1 %exitcond.not, label %43, label %73, !llvm.loop !253
}